target datalayout = "e-m:e-p270:32:32-p271:32:32-p272:64:64-i64:64-i128:128-f80:128-n8:16:32:64-S128"
target triple = "x86_64-pc-linux-gnu"

%struct.block_writer = type { ptr, ptr, i64, ptr, i32, i32, i16, i32, i32, ptr, i32, i32, %struct.reftable_buf, %struct.reftable_buf, i32 }
%struct.reftable_buf = type { i64, i64, ptr }

@.str = private unnamed_addr constant [7 x i8] c"1.2.11\00", align 1

; Function Attrs: nounwind uwtable
define dso_local i32 @block_writer_init(ptr noundef %0, i8 noundef zeroext %1, ptr noundef %2, i32 noundef %3, i32 noundef %4, i32 noundef %5) #0 {
  %7 = alloca i32, align 4
  %8 = alloca ptr, align 8
  %9 = alloca i8, align 1
  %10 = alloca ptr, align 8
  %11 = alloca i32, align 4
  %12 = alloca i32, align 4
  %13 = alloca i32, align 4
  store ptr %0, ptr %8, align 8, !tbaa !8
  store i8 %1, ptr %9, align 1, !tbaa !11
  store ptr %2, ptr %10, align 8, !tbaa !12
  store i32 %3, ptr %11, align 4, !tbaa !4
  store i32 %4, ptr %12, align 4, !tbaa !4
  store i32 %5, ptr %13, align 4, !tbaa !4
  %14 = load ptr, ptr %10, align 8, !tbaa !12
  %15 = load ptr, ptr %8, align 8, !tbaa !8
  %16 = getelementptr inbounds nuw %struct.block_writer, ptr %15, i32 0, i32 3
  store ptr %14, ptr %16, align 8, !tbaa !14
  %17 = load i32, ptr %13, align 4, !tbaa !4
  %18 = load ptr, ptr %8, align 8, !tbaa !8
  %19 = getelementptr inbounds nuw %struct.block_writer, ptr %18, i32 0, i32 7
  store i32 %17, ptr %19, align 4, !tbaa !21
  %20 = load i32, ptr %11, align 4, !tbaa !4
  %21 = load ptr, ptr %8, align 8, !tbaa !8
  %22 = getelementptr inbounds nuw %struct.block_writer, ptr %21, i32 0, i32 4
  store i32 %20, ptr %22, align 8, !tbaa !22
  %23 = load i32, ptr %12, align 4, !tbaa !4
  %24 = load ptr, ptr %8, align 8, !tbaa !8
  %25 = getelementptr inbounds nuw %struct.block_writer, ptr %24, i32 0, i32 5
  store i32 %23, ptr %25, align 4, !tbaa !23
  %26 = load i8, ptr %9, align 1, !tbaa !11
  %27 = load ptr, ptr %8, align 8, !tbaa !8
  %28 = getelementptr inbounds nuw %struct.block_writer, ptr %27, i32 0, i32 3
  %29 = load ptr, ptr %28, align 8, !tbaa !14
  %30 = load i32, ptr %12, align 4, !tbaa !4
  %31 = zext i32 %30 to i64
  %32 = getelementptr inbounds nuw i8, ptr %29, i64 %31
  store i8 %26, ptr %32, align 1, !tbaa !11
  %33 = load i32, ptr %12, align 4, !tbaa !4
  %34 = add i32 %33, 4
  %35 = load ptr, ptr %8, align 8, !tbaa !8
  %36 = getelementptr inbounds nuw %struct.block_writer, ptr %35, i32 0, i32 8
  store i32 %34, ptr %36, align 8, !tbaa !24
  %37 = load ptr, ptr %8, align 8, !tbaa !8
  %38 = getelementptr inbounds nuw %struct.block_writer, ptr %37, i32 0, i32 6
  store i16 16, ptr %38, align 8, !tbaa !25
  %39 = load ptr, ptr %8, align 8, !tbaa !8
  %40 = getelementptr inbounds nuw %struct.block_writer, ptr %39, i32 0, i32 14
  store i32 0, ptr %40, align 8, !tbaa !26
  %41 = load ptr, ptr %8, align 8, !tbaa !8
  %42 = getelementptr inbounds nuw %struct.block_writer, ptr %41, i32 0, i32 10
  store i32 0, ptr %42, align 8, !tbaa !27
  %43 = load ptr, ptr %8, align 8, !tbaa !8
  %44 = getelementptr inbounds nuw %struct.block_writer, ptr %43, i32 0, i32 12
  %45 = getelementptr inbounds nuw %struct.reftable_buf, ptr %44, i32 0, i32 1
  store i64 0, ptr %45, align 8, !tbaa !28
  %46 = load ptr, ptr %8, align 8, !tbaa !8
  %47 = getelementptr inbounds nuw %struct.block_writer, ptr %46, i32 0, i32 0
  %48 = load ptr, ptr %47, align 8, !tbaa !29
  %49 = icmp ne ptr %48, null
  br i1 %49, label %64, label %50

50:                                               ; preds = %6
  %51 = call ptr @reftable_calloc(i64 noundef 1, i64 noundef 112)
  %52 = load ptr, ptr %8, align 8, !tbaa !8
  %53 = getelementptr inbounds nuw %struct.block_writer, ptr %52, i32 0, i32 0
  store ptr %51, ptr %53, align 8, !tbaa !29
  %54 = load ptr, ptr %8, align 8, !tbaa !8
  %55 = getelementptr inbounds nuw %struct.block_writer, ptr %54, i32 0, i32 0
  %56 = load ptr, ptr %55, align 8, !tbaa !29
  %57 = icmp ne ptr %56, null
  br i1 %57, label %59, label %58

58:                                               ; preds = %50
  store i32 -13, ptr %7, align 4
  br label %65

59:                                               ; preds = %50
  %60 = load ptr, ptr %8, align 8, !tbaa !8
  %61 = getelementptr inbounds nuw %struct.block_writer, ptr %60, i32 0, i32 0
  %62 = load ptr, ptr %61, align 8, !tbaa !29
  %63 = call i32 @deflateInit_(ptr noundef %62, i32 noundef 9, ptr noundef @.str, i32 noundef 112)
  br label %64

64:                                               ; preds = %59, %6
  store i32 0, ptr %7, align 4
  br label %65

65:                                               ; preds = %64, %58
  %66 = load i32, ptr %7, align 4
  ret i32 %66
}