; Function Attrs: nounwind uwtable
define dso_local range(i32 -13, 1) i32 @block_writer_init(ptr noundef captures(none) initializes((24, 42), (44, 52), (64, 68), (80, 88), (120, 124)) %0, i8 noundef zeroext %1, ptr noundef %2, i32 noundef %3, i32 noundef %4, i32 noundef %5) local_unnamed_addr #2 {
  %7 = getelementptr inbounds nuw i8, ptr %0, i64 24
  store ptr %2, ptr %7, align 8, !tbaa !4
  %8 = getelementptr inbounds nuw i8, ptr %0, i64 44
  store i32 %5, ptr %8, align 4, !tbaa !16
  %9 = getelementptr inbounds nuw i8, ptr %0, i64 32
  store i32 %3, ptr %9, align 8, !tbaa !17
  %10 = getelementptr inbounds nuw i8, ptr %0, i64 36
  store i32 %4, ptr %10, align 4, !tbaa !18
  %11 = zext i32 %4 to i64
  %12 = getelementptr inbounds nuw i8, ptr %2, i64 %11
  store i8 %1, ptr %12, align 1, !tbaa !19
  %13 = add i32 %4, 4
  %14 = getelementptr inbounds nuw i8, ptr %0, i64 48
  store i32 %13, ptr %14, align 8, !tbaa !20
  %15 = getelementptr inbounds nuw i8, ptr %0, i64 40
  store i16 16, ptr %15, align 8, !tbaa !21
  %16 = getelementptr inbounds nuw i8, ptr %0, i64 120
  store i32 0, ptr %16, align 8, !tbaa !22
  %17 = getelementptr inbounds nuw i8, ptr %0, i64 64
  store i32 0, ptr %17, align 8, !tbaa !23
  %18 = getelementptr inbounds nuw i8, ptr %0, i64 80
  store i64 0, ptr %18, align 8, !tbaa !24
  %19 = load ptr, ptr %0, align 8, !tbaa !25
  %.not = icmp eq ptr %19, null
  br i1 %.not, label %20, label %24

20:                                               ; preds = %6
  %21 = tail call ptr @reftable_calloc(i64 noundef 1, i64 noundef 112) #11
  store ptr %21, ptr %0, align 8, !tbaa !25
  %.not22 = icmp eq ptr %21, null
  br i1 %.not22, label %24, label %22

22:                                               ; preds = %20
  %23 = tail call i32 @deflateInit_(ptr noundef nonnull %21, i32 noundef 9, ptr noundef nonnull @.str, i32 noundef 112) #11
  br label %24

24:                                               ; preds = %6, %22, %20
  %.0 = phi i32 [ -13, %20 ], [ 0, %22 ], [ 0, %6 ]
  ret i32 %.0
}